; Function Attrs: mustprogress nofree norecurse nosync nounwind willreturn memory(read, inaccessiblemem: none) uwtable
define dso_local noundef ptr @_Z12get_fact_mgrPK9CGContext(ptr noundef readonly captures(none) %0) local_unnamed_addr #8 {
  %2 = load ptr, ptr %0, align 8
  %3 = load ptr, ptr getelementptr inbounds nuw (i8, ptr @_ZL8FuncList, i64 8), align 8
  %4 = load ptr, ptr @_ZL8FuncList, align 8
  %.not.i = icmp eq ptr %3, %4
  br i1 %.not.i, label %_Z21get_fact_mgr_for_funcPK8Function.exit, label %.lr.ph.preheader.i

.lr.ph.preheader.i:                               ; preds = %1
  %5 = ptrtoint ptr %3 to i64
  %6 = ptrtoint ptr %4 to i64
  %7 = sub i64 %5, %6
  %8 = ashr exact i64 %7, 3
  %umax.i = tail call i64 @llvm.umax.i64(i64 %8, i64 1)
  br label %.lr.ph.i

.lr.ph.i:                                         ; preds = %16, %.lr.ph.preheader.i
  %.07.i = phi i64 [ %17, %16 ], [ 0, %.lr.ph.preheader.i ]
  %9 = getelementptr inbounds ptr, ptr %4, i64 %.07.i
  %10 = load ptr, ptr %9, align 8
  %11 = icmp eq ptr %10, %2
  br i1 %11, label %12, label %16

12:                                               ; preds = %.lr.ph.i
  %13 = load ptr, ptr @_ZL6FMList, align 8
  %14 = getelementptr inbounds ptr, ptr %13, i64 %.07.i
  %15 = load ptr, ptr %14, align 8
  br label %_Z21get_fact_mgr_for_funcPK8Function.exit

16:                                               ; preds = %.lr.ph.i
  %17 = add nuw i64 %.07.i, 1
  %exitcond.not.i = icmp eq i64 %17, %umax.i
  br i1 %exitcond.not.i, label %_Z21get_fact_mgr_for_funcPK8Function.exit, label %.lr.ph.i, !llvm.loop !9

_Z21get_fact_mgr_for_funcPK8Function.exit:        ; preds = %16, %1, %12
  %.05.i = phi ptr [ %15, %12 ], [ null, %1 ], [ null, %16 ]
  ret ptr %.05.i
}